target datalayout = "e-m:e-p270:32:32-p271:32:32-p272:64:64-i64:64-i128:128-f80:128-n8:16:32:64-S128"
target triple = "x86_64-pc-linux-gnu"

; Function Attrs: mustprogress nounwind uwtable
define hidden noundef double @_Z10cie_interpPKdd(ptr noundef %0, double noundef %1) #0 {
  %3 = alloca ptr, align 8
  %4 = alloca double, align 8
  %5 = alloca i32, align 4
  %6 = alloca double, align 8
  store ptr %0, ptr %3, align 8
  store double %1, ptr %4, align 8
  %7 = load double, ptr %4, align 8
  %8 = fsub contract double %7, 3.600000e+02
  store double %8, ptr %4, align 8
  %9 = load double, ptr %4, align 8
  %10 = fmul contract double %9, 2.000000e-01
  store double %10, ptr %4, align 8
  %11 = load double, ptr %4, align 8
  %12 = fptosi double %11 to i32
  store i32 %12, ptr %5, align 4
  %13 = load i32, ptr %5, align 4
  %14 = icmp slt i32 %13, 0
  br i1 %14, label %15, label %16

15:                                               ; preds = %2
  store i32 0, ptr %5, align 4
  br label %16

16:                                               ; preds = %15, %2
  %17 = load i32, ptr %5, align 4
  %18 = icmp sgt i32 %17, 93
  br i1 %18, label %19, label %20

19:                                               ; preds = %16
  store i32 93, ptr %5, align 4
  br label %20

20:                                               ; preds = %19, %16
  %21 = load double, ptr %4, align 8
  %22 = load i32, ptr %5, align 4
  %23 = sitofp i32 %22 to double
  %24 = fsub contract double %21, %23
  store double %24, ptr %6, align 8
  %25 = load double, ptr %6, align 8
  %26 = fsub contract double 1.000000e+00, %25
  %27 = load ptr, ptr %3, align 8
  %28 = load i32, ptr %5, align 4
  %29 = sext i32 %28 to i64
  %30 = getelementptr inbounds double, ptr %27, i64 %29
  %31 = load double, ptr %30, align 8
  %32 = fmul contract double %26, %31
  %33 = load double, ptr %6, align 8
  %34 = load ptr, ptr %3, align 8
  %35 = load i32, ptr %5, align 4
  %36 = add nsw i32 %35, 1
  %37 = sext i32 %36 to i64
  %38 = getelementptr inbounds double, ptr %34, i64 %37
  %39 = load double, ptr %38, align 8
  %40 = fmul contract double %33, %39
  %41 = fadd contract double %32, %40
  ret double %41
}