; Function Attrs: mustprogress nofree norecurse nosync nounwind willreturn memory(argmem: read) uwtable
define hidden noundef double @_Z10cie_interpPKdd(ptr nocapture noundef readonly %0, double noundef %1) local_unnamed_addr #0 {
  %3 = fadd contract double %1, -3.600000e+02
  %4 = fmul contract double %3, 2.000000e-01
  %5 = fptosi double %4 to i32
  %spec.store.select = tail call i32 @llvm.smax.i32(i32 %5, i32 0)
  %spec.store.select1 = tail call i32 @llvm.umin.i32(i32 %spec.store.select, i32 93)
  %6 = sitofp i32 %spec.store.select1 to double
  %7 = fsub contract double %4, %6
  %8 = fsub contract double 1.000000e+00, %7
  %9 = zext nneg i32 %spec.store.select1 to i64
  %10 = getelementptr inbounds double, ptr %0, i64 %9
  %11 = load double, ptr %10, align 8
  %12 = fmul contract double %8, %11
  %13 = getelementptr i8, ptr %10, i64 8
  %14 = load double, ptr %13, align 8
  %15 = fmul contract double %7, %14
  %16 = fadd contract double %12, %15
  ret double %16
}